target datalayout = "e-m:e-p270:32:32-p271:32:32-p272:64:64-i64:64-i128:128-f80:128-n8:16:32:64-S128"
target triple = "x86_64-pc-linux-gnu"

%struct._packet_info = type { ptr, ptr, i32, i32, %struct.nstime_t, %struct.nstime_t, %struct.nstime_t, i8, ptr, ptr, ptr, ptr, %struct._address, %struct._address, %struct._address, %struct._address, %struct._address, %struct._address, i32, ptr, i8, [3 x i8], %struct.anon, i32, i32, i32, i32, ptr, i8, ptr, ptr, i16, i16, i32, i32, i16, i32, i32, ptr, ptr, ptr, i8, i8, i16, i16, i16, i32, i16, i16, ptr, ptr, ptr, ptr, ptr, i32, i32 }
%struct.nstime_t = type { i64, i32 }
%struct._address = type { i32, i32, ptr, ptr }
%struct.anon = type { i8, [3 x i8] }
%struct._xmpp_attr_t = type { ptr, ptr, i32, i32, i8 }
%struct._frame_data = type <{ i32, i32, i32, i32, i32, [4 x i8], i64, ptr, ptr, ptr, i8, i16, [5 x i8], %struct.nstime_t, %struct.nstime_t, i32, i32 }>
%struct._xmpp_conv_info_t = type { ptr, ptr, ptr, ptr, i32 }
%struct._xmpp_element_t = type { ptr, ptr, ptr, ptr, ptr, ptr, i32, i32, i8 }
%struct._GList = type { ptr, ptr, ptr }

@.str = private unnamed_addr constant [3 x i8] c"id\00", align 1
@.str.3 = private unnamed_addr constant [8 x i8] c"session\00", align 1
@.str.4 = private unnamed_addr constant [6 x i8] c"xmlns\00", align 1
@.str.5 = private unnamed_addr constant [30 x i8] c"http://www.google.com/session\00", align 1

; Function Attrs: null_pointer_is_valid sspstrong uwtable
define hidden ptr @xmpp_get_attr(ptr noundef %0, ptr noundef %1) #0 {
  %3 = alloca ptr, align 8
  %4 = alloca ptr, align 8
  %5 = alloca ptr, align 8
  store ptr %0, ptr %3, align 8
  store ptr %1, ptr %4, align 8
  call void @llvm.lifetime.start.p0(i64 8, ptr %5) #8
  %6 = load ptr, ptr %3, align 8
  %7 = getelementptr inbounds nuw %struct._xmpp_element_t, ptr %6, i32 0, i32 3
  %8 = load ptr, ptr %7, align 8
  %9 = load ptr, ptr %4, align 8
  %10 = call ptr @g_hash_table_lookup(ptr noundef %8, ptr noundef %9)
  store ptr %10, ptr %5, align 8
  %11 = load ptr, ptr %5, align 8
  %12 = icmp ne ptr %11, null
  br i1 %12, label %19, label %13

13:                                               ; preds = %2
  %14 = load ptr, ptr %3, align 8
  %15 = getelementptr inbounds nuw %struct._xmpp_element_t, ptr %14, i32 0, i32 3
  %16 = load ptr, ptr %15, align 8
  %17 = load ptr, ptr %4, align 8
  %18 = call ptr @g_hash_table_find(ptr noundef %16, ptr noundef @attr_find_pred, ptr noundef %17)
  store ptr %18, ptr %5, align 8
  br label %19

19:                                               ; preds = %13, %2
  %20 = load ptr, ptr %5, align 8
  %21 = icmp ne ptr %20, null
  br i1 %21, label %22, label %25

22:                                               ; preds = %19
  %23 = load ptr, ptr %5, align 8
  %24 = getelementptr inbounds nuw %struct._xmpp_attr_t, ptr %23, i32 0, i32 4
  store i8 1, ptr %24, align 8
  br label %25

25:                                               ; preds = %22, %19
  %26 = load ptr, ptr %5, align 8
  call void @llvm.lifetime.end.p0(i64 8, ptr %5) #8
  ret ptr %26
}

; Function Attrs: null_pointer_is_valid sspstrong uwtable
define internal ptr @xmpp_find_element_by_name(ptr noundef %0, ptr noundef %1) #0 {
  %3 = alloca ptr, align 8
  %4 = alloca ptr, align 8
  %5 = alloca ptr, align 8
  %6 = alloca ptr, align 8
  %7 = alloca ptr, align 8
  %8 = alloca i32, align 4
  store ptr %0, ptr %4, align 8
  store ptr %1, ptr %5, align 8
  call void @llvm.lifetime.start.p0(i64 8, ptr %6) #8
  call void @llvm.lifetime.start.p0(i64 8, ptr %7) #8
  %9 = call ptr @wmem_packet_scope()
  %10 = call noalias ptr @wmem_alloc(ptr noundef %9, i64 noundef 64) #9
  store ptr %10, ptr %7, align 8
  %11 = call ptr @wmem_packet_scope()
  %12 = load ptr, ptr %5, align 8
  %13 = call noalias ptr @wmem_strdup(ptr noundef %11, ptr noundef %12)
  %14 = load ptr, ptr %7, align 8
  %15 = getelementptr inbounds nuw %struct._xmpp_element_t, ptr %14, i32 0, i32 0
  store ptr %13, ptr %15, align 8
  %16 = load ptr, ptr %4, align 8
  %17 = getelementptr inbounds nuw %struct._xmpp_element_t, ptr %16, i32 0, i32 4
  %18 = load ptr, ptr %17, align 8
  %19 = load ptr, ptr %7, align 8
  %20 = call ptr @g_list_find_custom(ptr noundef %18, ptr noundef %19, ptr noundef @xmpp_element_t_cmp)
  store ptr %20, ptr %6, align 8
  %21 = load ptr, ptr %6, align 8
  %22 = icmp ne ptr %21, null
  br i1 %22, label %23, label %25

23:                                               ; preds = %2
  %24 = load ptr, ptr %6, align 8
  store ptr %24, ptr %3, align 8
  store i32 1, ptr %8, align 4
  br label %26

25:                                               ; preds = %2
  store ptr null, ptr %3, align 8
  store i32 1, ptr %8, align 4
  br label %26

26:                                               ; preds = %25, %23
  call void @llvm.lifetime.end.p0(i64 8, ptr %7) #8
  call void @llvm.lifetime.end.p0(i64 8, ptr %6) #8
  %27 = load ptr, ptr %3, align 8
  ret ptr %27
}

; Function Attrs: null_pointer_is_valid sspstrong uwtable
define hidden void @xmpp_gtalk_session_track(ptr noundef %0, ptr noundef %1, ptr noundef %2) #0 {
  %4 = alloca ptr, align 8
  %5 = alloca ptr, align 8
  %6 = alloca ptr, align 8
  %7 = alloca ptr, align 8
  %8 = alloca ptr, align 8
  %9 = alloca ptr, align 8
  %10 = alloca ptr, align 8
  %11 = alloca ptr, align 8
  %12 = alloca ptr, align 8
  %13 = alloca ptr, align 8
  %14 = alloca i32, align 4
  store ptr %0, ptr %4, align 8
  store ptr %1, ptr %5, align 8
  store ptr %2, ptr %6, align 8
  call void @llvm.lifetime.start.p0(i64 8, ptr %7) #8
  call void @llvm.lifetime.start.p0(i64 8, ptr %8) #8
  %15 = load ptr, ptr %5, align 8
  %16 = call ptr @xmpp_find_element_by_name(ptr noundef %15, ptr noundef @.str.3)
  store ptr %16, ptr %8, align 8
  %17 = load ptr, ptr %8, align 8
  %18 = icmp ne ptr %17, null
  br i1 %18, label %19, label %23

19:                                               ; preds = %3
  %20 = load ptr, ptr %8, align 8
  %21 = getelementptr inbounds nuw %struct._GList, ptr %20, i32 0, i32 0
  %22 = load ptr, ptr %21, align 8
  br label %24

23:                                               ; preds = %3
  br label %24

24:                                               ; preds = %23, %19
  %25 = phi ptr [ %22, %19 ], [ null, %23 ]
  store ptr %25, ptr %7, align 8
  %26 = load ptr, ptr %7, align 8
  %27 = icmp ne ptr %26, null
  br i1 %27, label %28, label %81

28:                                               ; preds = %24
  %29 = load ptr, ptr %4, align 8
  %30 = getelementptr inbounds nuw %struct._packet_info, ptr %29, i32 0, i32 8
  %31 = load ptr, ptr %30, align 8
  %32 = getelementptr inbounds nuw %struct._frame_data, ptr %31, i32 0, i32 11
  %33 = load i16, ptr %32, align 1
  %34 = lshr i16 %33, 3
  %35 = and i16 %34, 1
  %36 = zext i16 %35 to i32
  %37 = icmp ne i32 %36, 0
  br i1 %37, label %81, label %38

38:                                               ; preds = %28
  call void @llvm.lifetime.start.p0(i64 8, ptr %9) #8
  call void @llvm.lifetime.start.p0(i64 8, ptr %10) #8
  call void @llvm.lifetime.start.p0(i64 8, ptr %11) #8
  call void @llvm.lifetime.start.p0(i64 8, ptr %12) #8
  call void @llvm.lifetime.start.p0(i64 8, ptr %13) #8
  %39 = load ptr, ptr %7, align 8
  %40 = call ptr @xmpp_get_attr(ptr noundef %39, ptr noundef @.str.4)
  store ptr %40, ptr %13, align 8
  %41 = load ptr, ptr %13, align 8
  %42 = icmp ne ptr %41, null
  br i1 %42, label %43, label %50

43:                                               ; preds = %38
  %44 = load ptr, ptr %13, align 8
  %45 = getelementptr inbounds nuw %struct._xmpp_attr_t, ptr %44, i32 0, i32 0
  %46 = load ptr, ptr %45, align 8
  %47 = call i32 @strcmp(ptr noundef %46, ptr noundef @.str.5) #10
  %48 = icmp ne i32 %47, 0
  br i1 %48, label %49, label %50

49:                                               ; preds = %43
  store i32 1, ptr %14, align 4
  br label %78

50:                                               ; preds = %43, %38
  %51 = load ptr, ptr %5, align 8
  %52 = call ptr @xmpp_get_attr(ptr noundef %51, ptr noundef @.str)
  store ptr %52, ptr %9, align 8
  %53 = load ptr, ptr %9, align 8
  %54 = icmp ne ptr %53, null
  br i1 %54, label %56, label %55

55:                                               ; preds = %50
  store i32 1, ptr %14, align 4
  br label %78

56:                                               ; preds = %50
  %57 = load ptr, ptr %7, align 8
  %58 = call ptr @xmpp_get_attr(ptr noundef %57, ptr noundef @.str)
  store ptr %58, ptr %10, align 8
  %59 = load ptr, ptr %10, align 8
  %60 = icmp ne ptr %59, null
  br i1 %60, label %62, label %61

61:                                               ; preds = %56
  store i32 1, ptr %14, align 4
  br label %78

62:                                               ; preds = %56
  %63 = call ptr @wmem_file_scope()
  %64 = load ptr, ptr %9, align 8
  %65 = getelementptr inbounds nuw %struct._xmpp_attr_t, ptr %64, i32 0, i32 0
  %66 = load ptr, ptr %65, align 8
  %67 = call noalias ptr @wmem_strdup(ptr noundef %63, ptr noundef %66)
  store ptr %67, ptr %11, align 8
  %68 = call ptr @wmem_file_scope()
  %69 = load ptr, ptr %10, align 8
  %70 = getelementptr inbounds nuw %struct._xmpp_attr_t, ptr %69, i32 0, i32 0
  %71 = load ptr, ptr %70, align 8
  %72 = call noalias ptr @wmem_strdup(ptr noundef %68, ptr noundef %71)
  store ptr %72, ptr %12, align 8
  %73 = load ptr, ptr %6, align 8
  %74 = getelementptr inbounds nuw %struct._xmpp_conv_info_t, ptr %73, i32 0, i32 3
  %75 = load ptr, ptr %74, align 8
  %76 = load ptr, ptr %11, align 8
  %77 = load ptr, ptr %12, align 8
  call void @wmem_tree_insert_string(ptr noundef %75, ptr noundef %76, ptr noundef %77, i32 noundef 1)
  store i32 0, ptr %14, align 4
  br label %78

78:                                               ; preds = %62, %61, %55, %49
  call void @llvm.lifetime.end.p0(i64 8, ptr %13) #8
  call void @llvm.lifetime.end.p0(i64 8, ptr %12) #8
  call void @llvm.lifetime.end.p0(i64 8, ptr %11) #8
  call void @llvm.lifetime.end.p0(i64 8, ptr %10) #8
  call void @llvm.lifetime.end.p0(i64 8, ptr %9) #8
  %79 = load i32, ptr %14, align 4
  switch i32 %79, label %82 [
    i32 0, label %80
  ]

80:                                               ; preds = %78
  br label %81

81:                                               ; preds = %80, %28, %24
  store i32 0, ptr %14, align 4
  br label %82

82:                                               ; preds = %81, %78
  call void @llvm.lifetime.end.p0(i64 8, ptr %8) #8
  call void @llvm.lifetime.end.p0(i64 8, ptr %7) #8
  %83 = load i32, ptr %14, align 4
  switch i32 %83, label %85 [
    i32 0, label %84
    i32 1, label %84
  ]

84:                                               ; preds = %82, %82
  ret void

85:                                               ; preds = %82
  unreachable
}