; Function Attrs: null_pointer_is_valid sspstrong uwtable
define hidden void @xmpp_gtalk_session_track(ptr noundef readonly captures(none) %0, ptr noundef readonly captures(none) %1, ptr noundef readonly captures(none) %2) local_unnamed_addr #0 {
  %4 = tail call ptr @wmem_packet_scope()
  %5 = tail call noalias dereferenceable_or_null(64) ptr @wmem_alloc(ptr noundef %4, i64 noundef 64) #10
  %6 = tail call ptr @wmem_packet_scope()
  %7 = tail call noalias ptr @wmem_strdup(ptr noundef %6, ptr noundef nonnull @.str.3)
  store ptr %7, ptr %5, align 8
  %8 = getelementptr inbounds nuw i8, ptr %1, i64 32
  %9 = load ptr, ptr %8, align 8
  %10 = tail call ptr @g_list_find_custom(ptr noundef %9, ptr noundef %5, ptr noundef nonnull @xmpp_element_t_cmp)
  %.not = icmp eq ptr %10, null
  br i1 %.not, label %.thread, label %11

11:                                               ; preds = %3
  %12 = load ptr, ptr %10, align 8
  %.not22 = icmp eq ptr %12, null
  br i1 %.not22, label %.thread, label %13

13:                                               ; preds = %11
  %14 = getelementptr inbounds nuw i8, ptr %0, i64 80
  %15 = load ptr, ptr %14, align 8
  %16 = getelementptr inbounds nuw i8, ptr %15, i64 57
  %17 = load i16, ptr %16, align 1
  %18 = and i16 %17, 8
  %.not23 = icmp eq i16 %18, 0
  br i1 %.not23, label %19, label %.thread

19:                                               ; preds = %13
  %20 = getelementptr inbounds nuw i8, ptr %12, i64 24
  %21 = load ptr, ptr %20, align 8
  %22 = tail call ptr @g_hash_table_lookup(ptr noundef %21, ptr noundef nonnull @.str.4)
  %.not.i = icmp eq ptr %22, null
  br i1 %.not.i, label %23, label %26

23:                                               ; preds = %19
  %24 = load ptr, ptr %20, align 8
  %25 = tail call ptr @g_hash_table_find(ptr noundef %24, ptr noundef nonnull @attr_find_pred, ptr noundef nonnull @.str.4)
  %.not9.i = icmp eq ptr %25, null
  br i1 %.not9.i, label %xmpp_get_attr.exit.thread, label %26

26:                                               ; preds = %23, %19
  %.012.i = phi ptr [ %25, %23 ], [ %22, %19 ]
  %27 = getelementptr inbounds nuw i8, ptr %.012.i, i64 24
  store i8 1, ptr %27, align 8
  %28 = load ptr, ptr %.012.i, align 8
  %29 = tail call i32 @strcmp(ptr noundef %28, ptr noundef nonnull dereferenceable(30) @.str.5) #11
  %.not25 = icmp eq i32 %29, 0
  br i1 %.not25, label %xmpp_get_attr.exit.thread, label %.thread

xmpp_get_attr.exit.thread:                        ; preds = %23, %26
  %30 = getelementptr inbounds nuw i8, ptr %1, i64 24
  %31 = load ptr, ptr %30, align 8
  %32 = tail call ptr @g_hash_table_lookup(ptr noundef %31, ptr noundef nonnull @.str)
  %.not.i28 = icmp eq ptr %32, null
  br i1 %.not.i28, label %33, label %36

33:                                               ; preds = %xmpp_get_attr.exit.thread
  %34 = load ptr, ptr %30, align 8
  %35 = tail call ptr @g_hash_table_find(ptr noundef %34, ptr noundef nonnull @attr_find_pred, ptr noundef nonnull @.str)
  %.not9.i32 = icmp eq ptr %35, null
  br i1 %.not9.i32, label %.thread, label %36

36:                                               ; preds = %33, %xmpp_get_attr.exit.thread
  %.012.i30 = phi ptr [ %35, %33 ], [ %32, %xmpp_get_attr.exit.thread ]
  %37 = getelementptr inbounds nuw i8, ptr %.012.i30, i64 24
  store i8 1, ptr %37, align 8
  %38 = load ptr, ptr %20, align 8
  %39 = tail call ptr @g_hash_table_lookup(ptr noundef %38, ptr noundef nonnull @.str)
  %.not.i34 = icmp eq ptr %39, null
  br i1 %.not.i34, label %40, label %.critedge

40:                                               ; preds = %36
  %41 = load ptr, ptr %20, align 8
  %42 = tail call ptr @g_hash_table_find(ptr noundef %41, ptr noundef nonnull @attr_find_pred, ptr noundef nonnull @.str)
  %.not9.i38 = icmp eq ptr %42, null
  br i1 %.not9.i38, label %.thread, label %.critedge

.critedge:                                        ; preds = %40, %36
  %.012.i36 = phi ptr [ %42, %40 ], [ %39, %36 ]
  %43 = getelementptr inbounds nuw i8, ptr %.012.i36, i64 24
  store i8 1, ptr %43, align 8
  %44 = tail call ptr @wmem_file_scope()
  %45 = load ptr, ptr %.012.i30, align 8
  %46 = tail call noalias ptr @wmem_strdup(ptr noundef %44, ptr noundef %45)
  %47 = tail call ptr @wmem_file_scope()
  %48 = load ptr, ptr %.012.i36, align 8
  %49 = tail call noalias ptr @wmem_strdup(ptr noundef %47, ptr noundef %48)
  %50 = getelementptr inbounds nuw i8, ptr %2, i64 24
  %51 = load ptr, ptr %50, align 8
  tail call void @wmem_tree_insert_string(ptr noundef %51, ptr noundef %46, ptr noundef %49, i32 noundef 1)
  br label %.thread

.thread:                                          ; preds = %40, %33, %3, %11, %13, %.critedge, %26
  ret void
}